; ModuleID = '33/1870.c'
source_filename = "33/1870.c"
target datalayout = "e-m:e-p270:32:32-p271:32:32-p272:64:64-i64:64-f80:128-n8:16:32:64-S128"
target triple = "x86_64-pc-linux-gnu"

@.str = private unnamed_addr constant [3 x i8] c"%d\00", align 1
@.str.1 = private unnamed_addr constant [3 x i8] c"%s\00", align 1
@.str.2 = private unnamed_addr constant [4 x i8] c"%c\0A\00", align 1
@.str.3 = private unnamed_addr constant [3 x i8] c"%c\00", align 1

; Function Attrs: noinline nounwind uwtable
define dso_local i32 @main() #0 {
  %1 = alloca i32, align 4
  %2 = alloca i32, align 4
  %3 = alloca i32, align 4
  %4 = alloca i32, align 4
  %5 = alloca [1000 x i32], align 16
  %6 = alloca [1000 x [285 x i8]], align 16
  %7 = alloca [1000 x [285 x i8]], align 16
  store i32 0, i32* %1, align 4
  %8 = call i32 (i8*, ...) @__isoc99_scanf(i8* getelementptr inbounds ([3 x i8], [3 x i8]* @.str, i64 0, i64 0), i32* %2)
  %9 = bitcast [1000 x i32]* %5 to i8*
  call void @llvm.memset.p0i8.i64(i8* align 16 %9, i8 0, i64 4000, i1 false)
  %10 = bitcast [1000 x [285 x i8]]* %7 to i8*
  call void @llvm.memset.p0i8.i64(i8* align 16 %10, i8 0, i64 285000, i1 false)
  store i32 0, i32* %3, align 4
  br label %11

11:                                               ; preds = %20, %0
  %12 = load i32, i32* %3, align 4
  %13 = load i32, i32* %2, align 4
  %14 = icmp slt i32 %12, %13
  br i1 %14, label %15, label %23

15:                                               ; preds = %11
  %16 = load i32, i32* %3, align 4
  %17 = sext i32 %16 to i64
  %18 = getelementptr inbounds [1000 x [285 x i8]], [1000 x [285 x i8]]* %6, i64 0, i64 %17
  %19 = call i32 (i8*, ...) @__isoc99_scanf(i8* getelementptr inbounds ([3 x i8], [3 x i8]* @.str.1, i64 0, i64 0), [285 x i8]* %18)
  br label %20

20:                                               ; preds = %15
  %21 = load i32, i32* %3, align 4
  %22 = add nsw i32 %21, 1
  store i32 %22, i32* %3, align 4
  br label %11

23:                                               ; preds = %11
  store i32 0, i32* %3, align 4
  br label %24

24:                                               ; preds = %118, %23
  %25 = load i32, i32* %3, align 4
  %26 = load i32, i32* %2, align 4
  %27 = icmp slt i32 %25, %26
  br i1 %27, label %28, label %121

28:                                               ; preds = %24
  %29 = load i32, i32* %3, align 4
  %30 = sext i32 %29 to i64
  %31 = getelementptr inbounds [1000 x [285 x i8]], [1000 x [285 x i8]]* %6, i64 0, i64 %30
  %32 = getelementptr inbounds [285 x i8], [285 x i8]* %31, i64 0, i64 0
  %33 = call i64 @strlen(i8* %32) #4
  %34 = trunc i64 %33 to i32
  %35 = load i32, i32* %3, align 4
  %36 = sext i32 %35 to i64
  %37 = getelementptr inbounds [1000 x i32], [1000 x i32]* %5, i64 0, i64 %36
  store i32 %34, i32* %37, align 4
  store i32 0, i32* %4, align 4
  br label %38

38:                                               ; preds = %114, %28
  %39 = load i32, i32* %4, align 4
  %40 = load i32, i32* %3, align 4
  %41 = sext i32 %40 to i64
  %42 = getelementptr inbounds [1000 x i32], [1000 x i32]* %5, i64 0, i64 %41
  %43 = load i32, i32* %42, align 4
  %44 = icmp slt i32 %39, %43
  br i1 %44, label %45, label %117

45:                                               ; preds = %38
  %46 = load i32, i32* %3, align 4
  %47 = sext i32 %46 to i64
  %48 = getelementptr inbounds [1000 x [285 x i8]], [1000 x [285 x i8]]* %6, i64 0, i64 %47
  %49 = load i32, i32* %4, align 4
  %50 = sext i32 %49 to i64
  %51 = getelementptr inbounds [285 x i8], [285 x i8]* %48, i64 0, i64 %50
  %52 = load i8, i8* %51, align 1
  %53 = sext i8 %52 to i32
  %54 = icmp eq i32 %53, 65
  br i1 %54, label %55, label %62

55:                                               ; preds = %45
  %56 = load i32, i32* %3, align 4
  %57 = sext i32 %56 to i64
  %58 = getelementptr inbounds [1000 x [285 x i8]], [1000 x [285 x i8]]* %7, i64 0, i64 %57
  %59 = load i32, i32* %4, align 4
  %60 = sext i32 %59 to i64
  %61 = getelementptr inbounds [285 x i8], [285 x i8]* %58, i64 0, i64 %60
  store i8 84, i8* %61, align 1
  br label %62

62:                                               ; preds = %55, %45
  %63 = load i32, i32* %3, align 4
  %64 = sext i32 %63 to i64
  %65 = getelementptr inbounds [1000 x [285 x i8]], [1000 x [285 x i8]]* %6, i64 0, i64 %64
  %66 = load i32, i32* %4, align 4
  %67 = sext i32 %66 to i64
  %68 = getelementptr inbounds [285 x i8], [285 x i8]* %65, i64 0, i64 %67
  %69 = load i8, i8* %68, align 1
  %70 = sext i8 %69 to i32
  %71 = icmp eq i32 %70, 84
  br i1 %71, label %72, label %79

72:                                               ; preds = %62
  %73 = load i32, i32* %3, align 4
  %74 = sext i32 %73 to i64
  %75 = getelementptr inbounds [1000 x [285 x i8]], [1000 x [285 x i8]]* %7, i64 0, i64 %74
  %76 = load i32, i32* %4, align 4
  %77 = sext i32 %76 to i64
  %78 = getelementptr inbounds [285 x i8], [285 x i8]* %75, i64 0, i64 %77
  store i8 65, i8* %78, align 1
  br label %79

79:                                               ; preds = %72, %62
  %80 = load i32, i32* %3, align 4
  %81 = sext i32 %80 to i64
  %82 = getelementptr inbounds [1000 x [285 x i8]], [1000 x [285 x i8]]* %6, i64 0, i64 %81
  %83 = load i32, i32* %4, align 4
  %84 = sext i32 %83 to i64
  %85 = getelementptr inbounds [285 x i8], [285 x i8]* %82, i64 0, i64 %84
  %86 = load i8, i8* %85, align 1
  %87 = sext i8 %86 to i32
  %88 = icmp eq i32 %87, 67
  br i1 %88, label %89, label %96

89:                                               ; preds = %79
  %90 = load i32, i32* %3, align 4
  %91 = sext i32 %90 to i64
  %92 = getelementptr inbounds [1000 x [285 x i8]], [1000 x [285 x i8]]* %7, i64 0, i64 %91
  %93 = load i32, i32* %4, align 4
  %94 = sext i32 %93 to i64
  %95 = getelementptr inbounds [285 x i8], [285 x i8]* %92, i64 0, i64 %94
  store i8 71, i8* %95, align 1
  br label %96

96:                                               ; preds = %89, %79
  %97 = load i32, i32* %3, align 4
  %98 = sext i32 %97 to i64
  %99 = getelementptr inbounds [1000 x [285 x i8]], [1000 x [285 x i8]]* %6, i64 0, i64 %98
  %100 = load i32, i32* %4, align 4
  %101 = sext i32 %100 to i64
  %102 = getelementptr inbounds [285 x i8], [285 x i8]* %99, i64 0, i64 %101
  %103 = load i8, i8* %102, align 1
  %104 = sext i8 %103 to i32
  %105 = icmp eq i32 %104, 71
  br i1 %105, label %106, label %113

106:                                              ; preds = %96
  %107 = load i32, i32* %3, align 4
  %108 = sext i32 %107 to i64
  %109 = getelementptr inbounds [1000 x [285 x i8]], [1000 x [285 x i8]]* %7, i64 0, i64 %108
  %110 = load i32, i32* %4, align 4
  %111 = sext i32 %110 to i64
  %112 = getelementptr inbounds [285 x i8], [285 x i8]* %109, i64 0, i64 %111
  store i8 67, i8* %112, align 1
  br label %113

113:                                              ; preds = %106, %96
  br label %114

114:                                              ; preds = %113
  %115 = load i32, i32* %4, align 4
  %116 = add nsw i32 %115, 1
  store i32 %116, i32* %4, align 4
  br label %38

117:                                              ; preds = %38
  br label %118

118:                                              ; preds = %117
  %119 = load i32, i32* %3, align 4
  %120 = add nsw i32 %119, 1
  store i32 %120, i32* %3, align 4
  br label %24

121:                                              ; preds = %24
  store i32 0, i32* %3, align 4
  br label %122

122:                                              ; preds = %167, %121
  %123 = load i32, i32* %3, align 4
  %124 = load i32, i32* %2, align 4
  %125 = icmp slt i32 %123, %124
  br i1 %125, label %126, label %170

126:                                              ; preds = %122
  store i32 0, i32* %4, align 4
  br label %127

127:                                              ; preds = %163, %126
  %128 = load i32, i32* %4, align 4
  %129 = load i32, i32* %3, align 4
  %130 = sext i32 %129 to i64
  %131 = getelementptr inbounds [1000 x i32], [1000 x i32]* %5, i64 0, i64 %130
  %132 = load i32, i32* %131, align 4
  %133 = icmp slt i32 %128, %132
  br i1 %133, label %134, label %166

134:                                              ; preds = %127
  %135 = load i32, i32* %4, align 4
  %136 = load i32, i32* %3, align 4
  %137 = sext i32 %136 to i64
  %138 = getelementptr inbounds [1000 x i32], [1000 x i32]* %5, i64 0, i64 %137
  %139 = load i32, i32* %138, align 4
  %140 = sub nsw i32 %139, 1
  %141 = icmp eq i32 %135, %140
  br i1 %141, label %142, label %152

142:                                              ; preds = %134
  %143 = load i32, i32* %3, align 4
  %144 = sext i32 %143 to i64
  %145 = getelementptr inbounds [1000 x [285 x i8]], [1000 x [285 x i8]]* %7, i64 0, i64 %144
  %146 = load i32, i32* %4, align 4
  %147 = sext i32 %146 to i64
  %148 = getelementptr inbounds [285 x i8], [285 x i8]* %145, i64 0, i64 %147
  %149 = load i8, i8* %148, align 1
  %150 = sext i8 %149 to i32
  %151 = call i32 (i8*, ...) @printf(i8* getelementptr inbounds ([4 x i8], [4 x i8]* @.str.2, i64 0, i64 0), i32 %150)
  br label %162

152:                                              ; preds = %134
  %153 = load i32, i32* %3, align 4
  %154 = sext i32 %153 to i64
  %155 = getelementptr inbounds [1000 x [285 x i8]], [1000 x [285 x i8]]* %7, i64 0, i64 %154
  %156 = load i32, i32* %4, align 4
  %157 = sext i32 %156 to i64
  %158 = getelementptr inbounds [285 x i8], [285 x i8]* %155, i64 0, i64 %157
  %159 = load i8, i8* %158, align 1
  %160 = sext i8 %159 to i32
  %161 = call i32 (i8*, ...) @printf(i8* getelementptr inbounds ([3 x i8], [3 x i8]* @.str.3, i64 0, i64 0), i32 %160)
  br label %162

162:                                              ; preds = %152, %142
  br label %163

163:                                              ; preds = %162
  %164 = load i32, i32* %4, align 4
  %165 = add nsw i32 %164, 1
  store i32 %165, i32* %4, align 4
  br label %127

166:                                              ; preds = %127
  br label %167

167:                                              ; preds = %166
  %168 = load i32, i32* %3, align 4
  %169 = add nsw i32 %168, 1
  store i32 %169, i32* %3, align 4
  br label %122

170:                                              ; preds = %122
  ret i32 0
}

declare dso_local i32 @__isoc99_scanf(i8*, ...) #1

; Function Attrs: argmemonly nounwind willreturn
declare void @llvm.memset.p0i8.i64(i8* nocapture writeonly, i8, i64, i1 immarg) #2

; Function Attrs: nounwind readonly
declare dso_local i64 @strlen(i8*) #3

declare dso_local i32 @printf(i8*, ...) #1


!llvm.module.flags = !{!0}
!llvm.ident = !{!1}

!0 = !{i32 1, !"wchar_size", i32 4}
!1 = !{!"clang version 10.0.0-4ubuntu1 "}
